target datalayout = "e-m:e-p270:32:32-p271:32:32-p272:64:64-i64:64-i128:128-f80:128-n8:16:32:64-S128"
target triple = "x86_64-pc-linux-gnu"

%struct._zend_fcall_info = type { i64, %struct._zval_struct, ptr, ptr, ptr, i32, ptr }
%struct._zend_fcall_info_cache = type { ptr, ptr, ptr, ptr, ptr }
%struct._zval_struct = type { %union._zend_value, %union.anon.3, %union.anon.6 }
%union._zend_value = type { i64 }
%union.anon.3 = type { i32 }
%union.anon.6 = type { i32 }
%struct._user_tick_function_entry = type { %struct._zend_fcall_info, %struct._zend_fcall_info_cache, i8 }

; Function Attrs: nounwind uwtable
define internal void @user_tick_function_call(ptr noundef %0) #0 {
  %2 = alloca ptr, align 8
  %3 = alloca %struct._zval_struct, align 8
  store ptr %0, ptr %2, align 8
  %4 = load ptr, ptr %2, align 8
  %5 = getelementptr inbounds %struct._user_tick_function_entry, ptr %4, i32 0, i32 2
  %6 = load i8, ptr %5, align 8
  %7 = trunc i8 %6 to i1
  br i1 %7, label %21, label %8

8:                                                ; preds = %1
  %9 = load ptr, ptr %2, align 8
  %10 = getelementptr inbounds %struct._user_tick_function_entry, ptr %9, i32 0, i32 0
  %11 = getelementptr inbounds %struct._zend_fcall_info, ptr %10, i32 0, i32 2
  store ptr %3, ptr %11, align 8
  %12 = load ptr, ptr %2, align 8
  %13 = getelementptr inbounds %struct._user_tick_function_entry, ptr %12, i32 0, i32 2
  store i8 1, ptr %13, align 8
  %14 = load ptr, ptr %2, align 8
  %15 = getelementptr inbounds %struct._user_tick_function_entry, ptr %14, i32 0, i32 0
  %16 = load ptr, ptr %2, align 8
  %17 = getelementptr inbounds %struct._user_tick_function_entry, ptr %16, i32 0, i32 1
  %18 = call i32 @zend_call_function(ptr noundef %15, ptr noundef %17)
  call void @zval_ptr_dtor(ptr noundef %3)
  %19 = load ptr, ptr %2, align 8
  %20 = getelementptr inbounds %struct._user_tick_function_entry, ptr %19, i32 0, i32 2
  store i8 0, ptr %20, align 8
  br label %21

21:                                               ; preds = %8, %1
  ret void
}