; Function Attrs: nounwind uwtable
define internal void @user_tick_function_call(ptr noundef %0) #0 {
  %2 = alloca %struct._zval_struct, align 8
  %3 = getelementptr inbounds i8, ptr %0, i64 104
  %4 = load i8, ptr %3, align 8
  %5 = and i8 %4, 1
  %.not = icmp eq i8 %5, 0
  br i1 %.not, label %6, label %10

6:                                                ; preds = %1
  %7 = getelementptr inbounds i8, ptr %0, i64 24
  store ptr %2, ptr %7, align 8
  store i8 1, ptr %3, align 8
  %8 = getelementptr inbounds i8, ptr %0, i64 64
  %9 = call i32 @zend_call_function(ptr noundef nonnull %0, ptr noundef nonnull %8) #18
  call void @zval_ptr_dtor(ptr noundef nonnull %2) #18
  store i8 0, ptr %3, align 8
  br label %10

10:                                               ; preds = %6, %1
  ret void
}